(dp0
Vengine
p1
Vxelatex
p2
sVpackages
p3
c__builtin__
set
p4
((lp5
Venumitem
p6
aVcaption
p7
aVamsmath
p8
aVbm
p9
aVsetspace
p10
aVdcolumn
p11
aVgeometry
p12
aVmultirow
p13
aVamsthm
p14
aVlmodern
p15
aVenumerate
p16
aVamsfonts
p17
aVgraphicx
p18
aVeconometrics
p19
aVamssymb
p20
atp21
Rp22
sVfiles_with_guttermarks
p23
g4
((lp24
V/Users/leannedong/Desktop/ML-DataMiningCourses/Tutorial 2 (written)/./Tutorial 2 Solution.tex
p25
aS'Tutorial 2 Solution.tex'
p26
atp27
Rp28
sVsynctex
p29
I01
s.